; Function Attrs: mustprogress uwtable
define void @_ZN6google8protobuf8compiler28SourceTreeDescriptorDatabase24ValidationErrorCollector11RecordErrorESt17basic_string_viewIcSt11char_traitsIcEES7_PKNS0_7MessageENS0_14DescriptorPool14ErrorCollector13ErrorLocationES7_(ptr nocapture noundef nonnull readonly align 8 dereferenceable(16) %this, i64 %filename.coerce0, ptr %filename.coerce1, i64 %element_name.coerce0, ptr %element_name.coerce1, ptr noundef %descriptor, i32 noundef %location, ptr nocapture noundef readonly byval(%"class.std::basic_string_view") align 8 %message) unnamed_addr #6 align 2 {
entry:
  %line = alloca i32, align 4
  %column = alloca i32, align 4
  %owner_ = getelementptr inbounds i8, ptr %this, i64 8
  %0 = load ptr, ptr %owner_, align 8
  %error_collector_ = getelementptr inbounds i8, ptr %0, i64 24
  %1 = load ptr, ptr %error_collector_, align 8
  %cmp = icmp eq ptr %1, null
  br i1 %cmp, label %return, label %if.end

if.end:                                           ; preds = %entry
  %cmp2 = icmp eq i32 %location, 9
  %source_locations_ = getelementptr inbounds i8, ptr %0, i64 40
  br i1 %cmp2, label %if.then3, label %if.else

if.then3:                                         ; preds = %if.end
  %call = call noundef zeroext i1 @_ZNK6google8protobuf8compiler19SourceLocationTable10FindImportEPKNS0_7MessageESt17basic_string_viewIcSt11char_traitsIcEEPiSA_(ptr noundef nonnull align 8 dereferenceable(64) %source_locations_, ptr noundef %descriptor, i64 %element_name.coerce0, ptr %element_name.coerce1, ptr noundef nonnull %line, ptr noundef nonnull %column)
  br label %if.end8

if.else:                                          ; preds = %if.end
  %call7 = call noundef zeroext i1 @_ZNK6google8protobuf8compiler19SourceLocationTable4FindEPKNS0_7MessageENS0_14DescriptorPool14ErrorCollector13ErrorLocationEPiS9_(ptr noundef nonnull align 8 dereferenceable(64) %source_locations_, ptr noundef %descriptor, i32 noundef %location, ptr noundef nonnull %line, ptr noundef nonnull %column)
  br label %if.end8

if.end8:                                          ; preds = %if.else, %if.then3
  %2 = load ptr, ptr %owner_, align 8
  %error_collector_10 = getelementptr inbounds i8, ptr %2, i64 24
  %3 = load ptr, ptr %error_collector_10, align 8
  %4 = load i32, ptr %line, align 4
  %5 = load i32, ptr %column, align 4
  %vtable = load ptr, ptr %3, align 8
  %vfn = getelementptr inbounds i8, ptr %vtable, i64 16
  %6 = load ptr, ptr %vfn, align 8
  call void %6(ptr noundef nonnull align 8 dereferenceable(8) %3, i64 %filename.coerce0, ptr %filename.coerce1, i32 noundef %4, i32 noundef %5, ptr noundef nonnull byval(%"class.std::basic_string_view") align 8 %message)
  br label %return

return:                                           ; preds = %entry, %if.end8
  ret void
}